; Function Attrs: mustprogress nofree norecurse nosync nounwind willreturn memory(argmem: read) uwtable
define hidden noundef i64 @_ZNK5boost9container3pmr13pool_resource10pool_indexEm(ptr nocapture noundef nonnull readonly align 8 dereferenceable(56) %0, i64 noundef %1) local_unnamed_addr #9 align 2 {
  %3 = getelementptr inbounds nuw i8, ptr %0, i64 8
  %4 = load i64, ptr %3, align 8, !tbaa !7
  %5 = icmp ugt i64 %1, %4
  br i1 %5, label %6, label %16

6:                                                ; preds = %2
  %7 = getelementptr inbounds nuw i8, ptr %0, i64 40
  %8 = load ptr, ptr %7, align 8, !tbaa !16
  %.not.i = icmp eq ptr %8, null
  br i1 %.not.i, label %12, label %9, !prof !36

9:                                                ; preds = %6
  %10 = getelementptr inbounds nuw i8, ptr %0, i64 48
  %11 = load i64, ptr %10, align 8, !tbaa !17
  br label %_ZNK5boost9container3pmr13pool_resource10pool_countEv.exit

12:                                               ; preds = %6
  %.sroa.speculated.i.i = tail call i64 @llvm.umax.i64(i64 %4, i64 16)
  %13 = add i64 %.sroa.speculated.i.i, -1
  %14 = tail call range(i64 0, 65) i64 @llvm.ctlz.i64(i64 %13, i1 false)
  %15 = sub nuw nsw i64 61, %14
  br label %_ZNK5boost9container3pmr13pool_resource10pool_countEv.exit

16:                                               ; preds = %2
  %.sroa.speculated.i = tail call i64 @llvm.umax.i64(i64 %1, i64 16)
  %17 = add i64 %.sroa.speculated.i, -1
  %18 = tail call range(i64 0, 65) i64 @llvm.ctlz.i64(i64 %17, i1 false)
  %19 = sub nuw nsw i64 60, %18
  br label %_ZNK5boost9container3pmr13pool_resource10pool_countEv.exit

_ZNK5boost9container3pmr13pool_resource10pool_countEv.exit: ; preds = %12, %9, %16
  %.0 = phi i64 [ %19, %16 ], [ %11, %9 ], [ %15, %12 ]
  ret i64 %.0
}